target datalayout = "e-m:e-p270:32:32-p271:32:32-p272:64:64-i64:64-i128:128-f80:128-n8:16:32:64-S128"
target triple = "x86_64-pc-linux-gnu"

%struct.ProgressBarStruct = type { i32, i32, i32, i32, ptr }

@.str.3 = private unnamed_addr constant [2 x i8] c" \00", align 1
@.str.4 = private unnamed_addr constant [2 x i8] c"\0D\00", align 1
@stdout = external global ptr, align 8

; Function Attrs: nounwind uwtable
define internal void @Extra_ProgressBarClean(ptr noundef %0) #0 {
  %2 = alloca ptr, align 8
  %3 = alloca i32, align 4
  %4 = alloca i32, align 4
  store ptr %0, ptr %2, align 8, !tbaa !10
  call void @llvm.lifetime.start.p0(i64 4, ptr %3) #7
  %5 = load ptr, ptr %2, align 8, !tbaa !10
  %6 = icmp eq ptr %5, null
  br i1 %6, label %7, label %8

7:                                                ; preds = %1
  store i32 1, ptr %4, align 4
  br label %34

8:                                                ; preds = %1
  %9 = call i32 (...) @Abc_FrameIsBatchMode()
  %10 = icmp ne i32 %9, 0
  br i1 %10, label %11, label %12

11:                                               ; preds = %8
  store i32 1, ptr %4, align 4
  br label %34

12:                                               ; preds = %8
  store i32 0, ptr %3, align 4, !tbaa !8
  br label %13

13:                                               ; preds = %24, %12
  %14 = load i32, ptr %3, align 4, !tbaa !8
  %15 = load ptr, ptr %2, align 8, !tbaa !10
  %16 = getelementptr inbounds nuw %struct.ProgressBarStruct, ptr %15, i32 0, i32 2
  %17 = load i32, ptr %16, align 8, !tbaa !15
  %18 = icmp sle i32 %14, %17
  br i1 %18, label %19, label %27

19:                                               ; preds = %13
  %20 = load ptr, ptr %2, align 8, !tbaa !10
  %21 = getelementptr inbounds nuw %struct.ProgressBarStruct, ptr %20, i32 0, i32 4
  %22 = load ptr, ptr %21, align 8, !tbaa !12
  %23 = call i32 (ptr, ptr, ...) @fprintf(ptr noundef %22, ptr noundef @.str.3) #7
  br label %24

24:                                               ; preds = %19
  %25 = load i32, ptr %3, align 4, !tbaa !8
  %26 = add nsw i32 %25, 1
  store i32 %26, ptr %3, align 4, !tbaa !8
  br label %13, !llvm.loop !23

27:                                               ; preds = %13
  %28 = load ptr, ptr %2, align 8, !tbaa !10
  %29 = getelementptr inbounds nuw %struct.ProgressBarStruct, ptr %28, i32 0, i32 4
  %30 = load ptr, ptr %29, align 8, !tbaa !12
  %31 = call i32 (ptr, ptr, ...) @fprintf(ptr noundef %30, ptr noundef @.str.4) #7
  %32 = load ptr, ptr @stdout, align 8, !tbaa !3
  %33 = call i32 @fflush(ptr noundef %32)
  store i32 0, ptr %4, align 4
  br label %34

34:                                               ; preds = %27, %11, %7
  call void @llvm.lifetime.end.p0(i64 4, ptr %3) #7
  %35 = load i32, ptr %4, align 4
  switch i32 %35, label %37 [
    i32 0, label %36
    i32 1, label %36
  ]

36:                                               ; preds = %34, %34
  ret void

37:                                               ; preds = %34
  unreachable
}

; Function Attrs: nounwind uwtable
define void @Extra_ProgressBarStop(ptr noundef %0) #0 {
  %2 = alloca ptr, align 8
  store ptr %0, ptr %2, align 8, !tbaa !10
  %3 = load ptr, ptr %2, align 8, !tbaa !10
  %4 = icmp eq ptr %3, null
  br i1 %4, label %5, label %6

5:                                                ; preds = %1
  br label %14

6:                                                ; preds = %1
  %7 = load ptr, ptr %2, align 8, !tbaa !10
  call void @Extra_ProgressBarClean(ptr noundef %7)
  %8 = load ptr, ptr %2, align 8, !tbaa !10
  %9 = icmp ne ptr %8, null
  br i1 %9, label %10, label %12

10:                                               ; preds = %6
  %11 = load ptr, ptr %2, align 8, !tbaa !10
  call void @free(ptr noundef %11) #7
  store ptr null, ptr %2, align 8, !tbaa !10
  br label %13

12:                                               ; preds = %6
  br label %13

13:                                               ; preds = %12, %10
  br label %14

14:                                               ; preds = %13, %5
  ret void
}