; Function Attrs: nounwind uwtable
define void @Extra_ProgressBarStop(ptr noundef %0) local_unnamed_addr #0 {
  %2 = icmp eq ptr %0, null
  br i1 %2, label %16, label %3

3:                                                ; preds = %1
  %4 = tail call i32 (...) @Abc_FrameIsBatchMode() #7
  %.not.i = icmp eq i32 %4, 0
  br i1 %.not.i, label %.preheader.i, label %Extra_ProgressBarClean.exit

.preheader.i:                                     ; preds = %3
  %5 = getelementptr inbounds nuw i8, ptr %0, i64 8
  %6 = load i32, ptr %5, align 8, !tbaa !11
  %.not68.i = icmp slt i32 %6, 0
  br i1 %.not68.i, label %._crit_edge.i, label %.lr.ph.i

.lr.ph.i:                                         ; preds = %.preheader.i
  %7 = getelementptr inbounds nuw i8, ptr %0, i64 16
  br label %8

8:                                                ; preds = %8, %.lr.ph.i
  %.09.i = phi i32 [ 0, %.lr.ph.i ], [ %10, %8 ]
  %9 = load ptr, ptr %7, align 8, !tbaa !3
  %fputc7.i = tail call i32 @fputc(i32 32, ptr %9)
  %10 = add nuw nsw i32 %.09.i, 1
  %11 = load i32, ptr %5, align 8, !tbaa !11
  %.not6.not.i = icmp slt i32 %.09.i, %11
  br i1 %.not6.not.i, label %8, label %._crit_edge.i, !llvm.loop !18

._crit_edge.i:                                    ; preds = %8, %.preheader.i
  %12 = getelementptr inbounds nuw i8, ptr %0, i64 16
  %13 = load ptr, ptr %12, align 8, !tbaa !3
  %fputc.i = tail call i32 @fputc(i32 13, ptr %13)
  %14 = load ptr, ptr @stdout, align 8, !tbaa !17
  %15 = tail call i32 @fflush(ptr noundef %14)
  br label %Extra_ProgressBarClean.exit

Extra_ProgressBarClean.exit:                      ; preds = %3, %._crit_edge.i
  tail call void @free(ptr noundef nonnull %0) #7
  br label %16

16:                                               ; preds = %Extra_ProgressBarClean.exit, %1
  ret void
}